Certificate:
    Data:
        Version: 1 (0x0)
        Serial Number: 2 (0x2)
        Signature Algorithm: md5WithRSAEncryption
        Issuer: O=RCF CA A, L=Canberra, ST=Australian Capital Territory, C=AU
        Validity
            Not Before: May 16 12:24:11 2009 GMT
            Not After : May 16 12:24:11 2010 GMT
        Subject: C=AU, ST=Australian Capital Territory, O=RCF CA A, CN=localhost
        Subject Public Key Info:
            Public Key Algorithm: rsaEncryption
            RSA Public Key: (1024 bit)
                Modulus (1024 bit):
                    00:bc:9d:9f:17:f1:ca:5f:f3:ba:55:8c:2a:ae:5b:
                    b7:b6:b4:f4:47:fd:63:28:f5:5e:d6:4b:23:11:cd:
                    f5:fd:ce:d1:f3:2f:a6:47:7d:2c:e9:79:3e:26:40:
                    66:bf:12:62:75:81:f1:8e:83:7e:d2:fb:39:4d:11:
                    d1:34:b6:27:a6:c3:78:b1:67:43:6d:6f:93:f9:1f:
                    c3:94:89:50:8b:5c:c2:77:d3:8e:f4:42:17:d9:c0:
                    30:15:9e:37:0c:a1:e1:6a:59:35:c6:99:41:4a:96:
                    9f:54:9e:26:bd:9d:dd:56:8f:4f:14:60:9c:68:03:
                    b7:39:78:76:0c:3b:65:85:b9
                Exponent: 65537 (0x10001)
    Signature Algorithm: md5WithRSAEncryption
        9e:b3:e4:00:75:e7:5f:95:40:96:ff:a0:06:d0:15:8c:8d:02:
        03:db:f6:ef:b6:04:7b:a8:37:d3:68:ad:cf:e7:47:83:e1:57:
        4b:ac:ad:6f:a4:7d:71:a9:2c:26:85:7d:eb:b1:25:ba:3e:04:
        76:39:08:40:ad:5d:26:6c:31:10:f1:f3:47:1f:0d:b0:d7:17:
        5b:d0:9f:58:49:7e:3f:66:91:b4:72:c8:42:60:de:1c:25:5d:
        cb:1a:0c:69:36:e1:98:25:0b:32:92:78:b7:fe:8a:c4:4b:56:
        f6:33:a2:ff:f5:35:b9:26:d2:eb:97:97:df:4d:a8:9e:5c:0d:
        aa:9a
-----BEGIN CERTIFICATE-----
MIICJDCCAY0CAQIwDQYJKoZIhvcNAQEEBQAwWjERMA8GA1UEChMIUkNGIENBIEEx
ETAPBgNVBAcTCENhbmJlcnJhMSUwIwYDVQQIExxBdXN0cmFsaWFuIENhcGl0YWwg
VGVycml0b3J5MQswCQYDVQQGEwJBVTAeFw0wOTA1MTYxMjI0MTFaFw0xMDA1MTYx
MjI0MTFaMFsxCzAJBgNVBAYTAkFVMSUwIwYDVQQIExxBdXN0cmFsaWFuIENhcGl0
YWwgVGVycml0b3J5MREwDwYDVQQKEwhSQ0YgQ0EgQTESMBAGA1UEAxMJbG9jYWxo
b3N0MIGfMA0GCSqGSIb3DQEBAQUAA4GNADCBiQKBgQC8nZ8X8cpf87pVjCquW7e2
tPRH/WMo9V7WSyMRzfX9ztHzL6ZHfSzpeT4mQGa/EmJ1gfGOg37S+zlNEdE0tiem
w3ixZ0Ntb5P5H8OUiVCLXMJ30470QhfZwDAVnjcMoeFqWTXGmUFKlp9Unia9nd1W
j08UYJxoA7c5eHYMO2WFuQIDAQABMA0GCSqGSIb3DQEBBAUAA4GBAJ6z5AB151+V
QJb/oAbQFYyNAgPb9u+2BHuoN9Norc/nR4PhV0usrW+kfXGpLCaFfeuxJbo+BHY5
CECtXSZsMRDx80cfDbDXF1vQn1hJfj9mkbRyyEJg3hwlXcsaDGk24ZglCzKSeLf+
isRLVvYzov/1Nbkm0uuXl99NqJ5cDaqa
-----END CERTIFICATE-----
-----BEGIN RSA PRIVATE KEY-----
MIICXQIBAAKBgQC8nZ8X8cpf87pVjCquW7e2tPRH/WMo9V7WSyMRzfX9ztHzL6ZH
fSzpeT4mQGa/EmJ1gfGOg37S+zlNEdE0tiemw3ixZ0Ntb5P5H8OUiVCLXMJ30470
QhfZwDAVnjcMoeFqWTXGmUFKlp9Unia9nd1Wj08UYJxoA7c5eHYMO2WFuQIDAQAB
AoGAStYzcJm0FVwsG5NQv/uOKgUkQ4gLFw48QcRwNrlEmB6+eMH4NLc64awEd8Ln
wXo27K7RPB16bZXWR3kBS+vWUQsP2EY67AQqxsfsVmHeQI8eXE3dRJt4lxe641lp
81SwVEGmN7RlO1JofEwjq/VWZz+gIAItUX/2UjUNG9Ennp0CQQDkPYBRC4QCiudb
hUk/HK9dEmEk8hugI3X7URQsvboHsjJsVEi+gaIcgwUMgze/iNKVZKzWtCOl3m97
TI4civXfAkEA045edjSU72KwaYKvNvqWMabwPC2r8Fa3WZ6jXH3BZE5WzzGErk8S
wewLKNlEEvpMw9zhiQIX/glxAYe4eqyHZwJBALx6rURAJjuTSYsifmJH5ekODHre
FEIiBoQLaIWqB73jQhCDaa8ojh7Nc5XpplfdPUlxYenLyMRo89b2WUTo3DECQGqN
7bQZ3d4I1hP+l6PYaSfPDncxBcYC10yTY3KlgG+2KXEoXsyw1SDJdAF6FRh964ZH
TW2FmXIBbWK46kkXdwcCQQCBYJg3p6gIqow7Gj+yLllW2veN8KXOVi/y4iWW3Z1s
aLk9YHIiWbViV/ZliOb+BFqYj5EkuuYEweQZQaOF2tVh
-----END RSA PRIVATE KEY-----
