Certificate:
    Data:
        Version: 1 (0x0)
        Serial Number: 2 (0x2)
        Signature Algorithm: md5WithRSAEncryption
        Issuer: O=RCF CA B, L=Canberra, ST=Australian Capital Territory, C=AU
        Validity
            Not Before: May 16 12:08:03 2009 GMT
            Not After : May 16 12:08:03 2010 GMT
        Subject: C=AU, ST=Australian Capital Territory, O=RCF CA B, CN=localhost
        Subject Public Key Info:
            Public Key Algorithm: rsaEncryption
            RSA Public Key: (1024 bit)
                Modulus (1024 bit):
                    00:ed:63:95:ec:58:72:f7:96:d8:03:1f:7d:5f:e5:
                    d0:39:21:6b:10:56:b4:fd:ce:3c:23:ff:b4:bc:f7:
                    e9:e8:38:ea:3e:2e:ed:e7:5a:13:1b:9e:54:a6:72:
                    f0:62:20:83:87:47:84:31:80:40:cb:04:74:13:3e:
                    bc:a1:c8:b3:d2:26:9d:62:77:54:cb:74:80:40:16:
                    7c:df:59:d6:de:6c:e5:15:25:09:58:22:ab:50:0d:
                    a1:eb:4a:88:91:a3:27:98:58:0e:0d:f0:0d:82:4a:
                    6f:68:42:d1:7a:35:be:c5:dc:b1:fe:dc:a1:1f:11:
                    0d:c1:6f:a0:a4:01:31:89:53
                Exponent: 65537 (0x10001)
    Signature Algorithm: md5WithRSAEncryption
        7e:c4:2e:7a:a9:7b:c6:01:cc:66:1f:63:97:1d:b9:61:71:60:
        e7:64:ca:28:f6:2d:c5:86:71:96:7b:e6:02:1d:b0:5c:86:32:
        e7:0c:8a:18:85:c2:0c:2c:8b:ae:30:db:a7:64:b9:a4:f3:96:
        8d:2f:ac:62:65:8f:38:a3:63:22:d9:0b:30:7e:dc:d8:43:77:
        af:d3:a5:18:5f:cc:97:c9:ce:45:ee:af:b4:81:fb:38:67:a7:
        67:97:94:ea:30:7a:b5:c6:ea:9a:43:eb:9f:60:c7:31:9c:b9:
        23:7f:9f:5e:70:f2:86:3c:cc:e8:e3:ad:ea:fc:ed:93:7d:89:
        9b:be
-----BEGIN CERTIFICATE-----
MIICJDCCAY0CAQIwDQYJKoZIhvcNAQEEBQAwWjERMA8GA1UEChMIUkNGIENBIEIx
ETAPBgNVBAcTCENhbmJlcnJhMSUwIwYDVQQIExxBdXN0cmFsaWFuIENhcGl0YWwg
VGVycml0b3J5MQswCQYDVQQGEwJBVTAeFw0wOTA1MTYxMjA4MDNaFw0xMDA1MTYx
MjA4MDNaMFsxCzAJBgNVBAYTAkFVMSUwIwYDVQQIExxBdXN0cmFsaWFuIENhcGl0
YWwgVGVycml0b3J5MREwDwYDVQQKEwhSQ0YgQ0EgQjESMBAGA1UEAxMJbG9jYWxo
b3N0MIGfMA0GCSqGSIb3DQEBAQUAA4GNADCBiQKBgQDtY5XsWHL3ltgDH31f5dA5
IWsQVrT9zjwj/7S89+noOOo+Lu3nWhMbnlSmcvBiIIOHR4QxgEDLBHQTPryhyLPS
Jp1id1TLdIBAFnzfWdbebOUVJQlYIqtQDaHrSoiRoyeYWA4N8A2CSm9oQtF6Nb7F
3LH+3KEfEQ3Bb6CkATGJUwIDAQABMA0GCSqGSIb3DQEBBAUAA4GBAH7ELnqpe8YB
zGYfY5cduWFxYOdkyij2LcWGcZZ75gIdsFyGMucMihiFwgwsi64w26dkuaTzlo0v
rGJljzijYyLZCzB+3NhDd6/TpRhfzJfJzkXur7SB+zhnp2eXlOowerXG6ppD659g
xzGcuSN/n15w8oY8zOjjrer87ZN9iZu+
-----END CERTIFICATE-----
-----BEGIN RSA PRIVATE KEY-----
MIICXQIBAAKBgQDtY5XsWHL3ltgDH31f5dA5IWsQVrT9zjwj/7S89+noOOo+Lu3n
WhMbnlSmcvBiIIOHR4QxgEDLBHQTPryhyLPSJp1id1TLdIBAFnzfWdbebOUVJQlY
IqtQDaHrSoiRoyeYWA4N8A2CSm9oQtF6Nb7F3LH+3KEfEQ3Bb6CkATGJUwIDAQAB
AoGAYiiKhqbwKvaBrZDoy62AUw9BcQkZX9VWQuBqALVWUAKwwTOwhbhWLFZk1Eq0
oS6mlFp7C+jnYcseoBKR9yfBSnlomgh+9o7mSmILnoKJfYl0rLdVXd5qvZqr0dOv
NhwWzQ24mFndVuRCEA6jS1RrZPV7E3Oao50V/xCACbWo0GkCQQD7zpKS4Y9wS28J
xNctpiYo4vbyi8xidAEbufERqm2ieW5sA1QAHllVneGmu8anUYOx1J/4MgXozleQ
bMUSK0S1AkEA8VeNC6xn/ib+QlRmeDMZhXt63HnjWBF7pyii6N8bLS0BUvMeM6Ia
uUaDNjATyNut1ZQLf6UOfCFCAGNvB3yi5wJBANhV7IW2tlZi6J36+GemtGgyPrm5
M7puMbmRcbScuJ57N0wjO9ryOAwfnYtzDkQX+04f/+PrjjoqdP6HBHUMqXUCQAWU
O4t4idLjPd90qgW/UKi4SQfNvYasqModc16kwbESqEQtoJYa+jksOx5GkD6FbYhR
as6hlyshbbAqnEd1ByMCQQDyZEOBqq6A7AmU2LwwE1actwZtZI59fz4s9j8cwc55
Md9hLT//o7BwGBJWlm8v/jZvrG78uZ9cHCrCRAb9WW/P
-----END RSA PRIVATE KEY-----
